(lp0
(lp1
F0.0
aF0.0
aF1.0562033699414077e-09
aF2.3282164865810176e-09
aF4.0541684248720515e-09
aF6.203381503283728e-09
aF8.745837320365842e-09
aF1.1652176565042056e-08
aF1.4893699366262864e-08
aF1.844236488630347e-08
aF2.2270791909894224e-08
aF2.635225816890822e-08
aF3.066070122301932e-08
aF3.5170717468725617e-08
aF3.985756335370068e-08
aF4.469715403276337e-08
aF4.96660646949401e-08
aF5.474153010674884e-08
aF5.990144404603125e-08
aF6.512435971317752e-08
aF7.03894908387678e-08
aF7.56767093998303e-08
aF8.096654800159364e-08
aF8.624019895874815e-08
aF9.14795134286456e-08
aF9.66670021156599e-08
aF1.0178583684139053e-07
aF1.0681984718990393e-07
aF1.1175352450050329e-07
aF1.165720177247882e-07
aF1.2126113778808486e-07
aF1.2580735308840588e-07
aF1.3019779420037645e-07
aF1.3442024904490515e-07
aF1.384631679042685e-07
aF1.4231565829622004e-07
aF1.459674895740364e-07
aF1.4940909099423816e-07
aF1.5263155033979965e-07
aF1.5562661522343795e-07
aF1.5838669535327122e-07
aF1.6090485745396644e-07
aF1.631748303844932e-07
aF1.651910029651518e-07
aF1.6694842249788884e-07
aF1.6844279623933784e-07
aF1.6967049368497302e-07
aF1.7062854132639198e-07
aF1.7131462789914246e-07
aF1.7172710217869413e-07
aF1.7186497141503763e-07
aF1.7172790295633758e-07
aF1.7131622560945852e-07
aF1.7063092830286316e-07
aF1.6967365842739487e-07
aF1.6844672359142236e-07
aF1.6695309347660714e-07
aF1.6519639514078095e-07
aF1.6318091763974178e-07
aF1.609116104031047e-07
aF1.5839408115880156e-07
aF1.5563459812144343e-07
aF1.5264009056099072e-07
aF1.4941814845710628e-07
aF1.4597701973175415e-07
aF1.4232561308675354e-07
aF1.3847349888318247e-07
aF1.3443090527324782e-07
aF1.3020872181997455e-07
aF1.2581849990196434e-07
aF1.2127244731961055e-07
aF1.1658343349038775e-07
aF1.1176498806652854e-07
aF1.0683130416578183e-07
aF1.0179722665752185e-07
aF9.667827161325923e-08
aF9.149060513009663e-08
aF8.625105698890776e-08
aF8.097711660175261e-08
aF7.568694279975434e-08
aF7.039933845972302e-08
aF6.513377278148062e-08
aF5.991037583356526e-08
aF5.4749951813415683e-08
aF4.967393037388876e-08
aF4.4704445662069136e-08
aF3.9864253985886373e-08
aF3.5176780732562824e-08
aF3.066611935633438e-08
aF2.6357043792643022e-08
aF2.2274926927651762e-08
aF1.8445881633589827e-08
aF1.4896613218801303e-08
aF1.1654500579950272e-08
aF8.747598201144017e-09
aF6.20466551434796e-09
aF0.0
aF0.0
aF0.0
aF0.0
aaF1.7186497141503763e-07
acnumpy.core.multiarray
scalar
p2
(cnumpy
dtype
p3
(S'f8'
p4
I0
I1
tp5
Rp6
(I3
S'<'
p7
NNNI-1
I-1
I0
tp8
bS'{\x14\xaeG\xe1zt?'
p9
tp10
Rp11
aF0.01
aI11
acnumpy.core.multiarray
_reconstruct
p12
(cnumpy
ndarray
p13
(I0
tp14
S'b'
p15
tp16
Rp17
(I1
(I100
tp18
g6
I00
S'\x00\x00\x00\x00\x00\x00\x00\x00-C\x1c\xeb\xe26\x1a?-C\x1c\xeb\xe26*?b2U0*\xa93?-C\x1c\xeb\xe26:?\xfc\xa9\xf1\xd2Mb@?b2U0*\xa9C?\xc7\xba\xb8\x8d\x06\xf0F?-C\x1c\xeb\xe26J?\x93\xcb\x7fH\xbf}M?\xfc\xa9\xf1\xd2MbP?/n\xa3\x01\xbc\x05R?b2U0*\xa9S?\x95\xf6\x06_\x98LU?\xc7\xba\xb8\x8d\x06\xf0V?\xfa~j\xbct\x93X?-C\x1c\xeb\xe26Z?`\x07\xce\x19Q\xda[?\x93\xcb\x7fH\xbf}]?\xc5\x8f1w-!_?\xfc\xa9\xf1\xd2Mb`?\x16\x8cJ\xea\x044a?/n\xa3\x01\xbc\x05b?HP\xfc\x18s\xd7b?b2U0*\xa9c?{\x14\xaeG\xe1zd?\x95\xf6\x06_\x98Le?\xae\xd8_vO\x1ef?\xc7\xba\xb8\x8d\x06\xf0f?\xe1\x9c\x11\xa5\xbd\xc1g?\xfa~j\xbct\x93h?\x14a\xc3\xd3+ei?-C\x1c\xeb\xe26j?F%u\x02\x9a\x08k?`\x07\xce\x19Q\xdak?y\xe9&1\x08\xacl?\x93\xcb\x7fH\xbf}m?\xac\xad\xd8_vOn?\xc5\x8f1w-!o?\xdfq\x8a\x8e\xe4\xf2o?\xfc\xa9\xf1\xd2Mbp?\t\x1b\x9e^)\xcbp?\x16\x8cJ\xea\x044q?"\xfd\xf6u\xe0\x9cq?/n\xa3\x01\xbc\x05r?<\xdfO\x8d\x97nr?HP\xfc\x18s\xd7r?U\xc1\xa8\xa4N@s?b2U0*\xa9s?n\xa3\x01\xbc\x05\x12t?{\x14\xaeG\xe1zt?\x88\x85Z\xd3\xbc\xe3t?\x95\xf6\x06_\x98Lu?\xa1g\xb3\xeas\xb5u?\xae\xd8_vO\x1ev?\xbbI\x0c\x02+\x87v?\xc7\xba\xb8\x8d\x06\xf0v?\xd4+e\x19\xe2Xw?\xe1\x9c\x11\xa5\xbd\xc1w?\xed\r\xbe0\x99*x?\xfa~j\xbct\x93x?\x07\xf0\x16HP\xfcx?\x14a\xc3\xd3+ey? \xd2o_\x07\xcey?-C\x1c\xeb\xe26z?:\xb4\xc8v\xbe\x9fz?F%u\x02\x9a\x08{?S\x96!\x8euq{?`\x07\xce\x19Q\xda{?mxz\xa5,C|?y\xe9&1\x08\xac|?\x86Z\xd3\xbc\xe3\x14}?\x93\xcb\x7fH\xbf}}?\x9f<,\xd4\x9a\xe6}?\xac\xad\xd8_vO~?\xb9\x1e\x85\xebQ\xb8~?\xc5\x8f1w-!\x7f?\xd2\x00\xde\x02\t\x8a\x7f?\xdfq\x8a\x8e\xe4\xf2\x7f?vq\x1b\r\xe0-\x80?\xfc\xa9\xf1\xd2Mb\x80?\x82\xe2\xc7\x98\xbb\x96\x80?\t\x1b\x9e^)\xcb\x80?\x8fSt$\x97\xff\x80?\x16\x8cJ\xea\x044\x81?\x9c\xc4 \xb0rh\x81?"\xfd\xf6u\xe0\x9c\x81?\xa95\xcd;N\xd1\x81?/n\xa3\x01\xbc\x05\x82?\xb5\xa6y\xc7):\x82?<\xdfO\x8d\x97n\x82?\xc2\x17&S\x05\xa3\x82?HP\xfc\x18s\xd7\x82?\xcf\x88\xd2\xde\xe0\x0b\x83?U\xc1\xa8\xa4N@\x83?\xdb\xf9~j\xbct\x83?b2U0*\xa9\x83?\xe8j+\xf6\x97\xdd\x83?n\xa3\x01\xbc\x05\x12\x84?\xf5\xdb\xd7\x81sF\x84?'
p19
tp20
ba(lp21
F6.874253806593098e-07
aF6.60339698603769e-07
aF6.868756667432754e-07
aF6.861888709545169e-07
aF6.852279307623846e-07
aF6.839934067669953e-07
aF6.824860630550418e-07
aF6.807067773858093e-07
aF6.786566439700167e-07
aF6.763368704004005e-07
aF6.737488810062636e-07
aF6.708942132712897e-07
aF6.677746216362104e-07
aF6.643919735322145e-07
aF6.607483535024131e-07
aF6.568459589811311e-07
aF6.52687191647801e-07
aF6.482746178601106e-07
aF6.436109434660607e-07
aF6.386990390242994e-07
aF6.335419793130272e-07
aF6.281429520996679e-07
aF6.225053493545644e-07
aF6.166327276298171e-07
aF6.105287832138529e-07
aF6.041973772113551e-07
aF5.976425744924811e-07
aF5.908685536189946e-07
aF5.838797094538431e-07
aF5.766805509189059e-07
aF5.692758028489479e-07
aF5.616703045711789e-07
aF5.538691108698348e-07
aF5.458773915212329e-07
aF5.377005312354103e-07
aF5.293440302801309e-07
aF5.208135912143711e-07
aF5.121150809938321e-07
aF5.032545079484065e-07
aF4.942380455014344e-07
aF4.85072067985871e-07
aF4.7576306738223455e-07
aF4.66317736368521e-07
aF4.5674293199180797e-07
aF4.4704565377186293e-07
aF4.372330664864198e-07
aF4.273125338377272e-07
aF4.1729153983748665e-07
aF4.071777671400631e-07
aF3.9697906283477086e-07
aF3.867034177194639e-07
aF3.7635898807771093e-07
aF3.659541164584278e-07
aF3.5549730995612016e-07
aF3.449972202265238e-07
aF3.3446266461965497e-07
aF3.2390265522560805e-07
aF3.133263299349254e-07
aF3.02743020951698e-07
aF2.9216222543498833e-07
aF2.815935862018212e-07
aF2.710469122554871e-07
aF2.605321954317779e-07
aF2.5005959305875524e-07
aF2.396394085297425e-07
aF2.2928211194565038e-07
aF2.1899836327848713e-07
aF2.0879895436323603e-07
aF1.9869486621016635e-07
aF1.8869724699127022e-07
aF1.7881739024911384e-07
aF1.690667576239459e-07
aF1.594569892009782e-07
aF1.4999989500654157e-07
aF1.4070741808555792e-07
aF1.3159170874327417e-07
aF1.2266504827159384e-07
aF1.1393988916681922e-07
aF1.0542886011641392e-07
aF9.714476706484632e-08
aF8.910054745398434e-08
aF8.130931357757632e-08
aF7.378435412884767e-08
aF6.653914012368796e-08
aF5.958724899433138e-08
aF5.294249810900026e-08
aF4.661880837329611e-08
aF4.063027869006777e-08
aF3.4991190462613734e-08
aF2.971601253573817e-08
aF2.481929799440605e-08
aF2.0315869544168997e-08
aF1.6220628365859332e-08
aF1.2548658426636426e-08
aF9.315229960369178e-09
aF6.535825386125798e-09
aF0.0
aF0.0
aF0.0
aF0.0
aaF6.874253806593098e-07
ag2
(g6
S'\x00\x00\x00\x00\x00\x00\x00\x00'
p22
tp23
Rp24
a.