(lp0
(lp1
F0.0
aF0.0
aF0.3492465146393661
aF25.709019045049175
aF68.91424123683979
aF58.690317481895676
aF19.967398181276142
aF2.627638544066127
aF0.10853650487221972
aF0.0008333856496068808
aF8.099012678368607e-08
aF2.04525300849273e-08
aF3.052688879494093e-07
aF3.367777917281424e-07
aF0.00031292880947459567
aF0.10734302751750184
aF5.821821459466903
aF90.79791335693258
aF548.5457175589155
aF1428.508244439534
aF1470.8489536807106
aF256.1026666001707
aF379.21412248759736
aF2041.358617870237
aF2197.767558385468
aF954.281380220196
aF178.64364444808186
aF12.839682120524786
aF0.26158210001735344
aF0.0006911500560898146
aF1.6906603304406537e-06
aF2.583741255076141e-07
aF2.105283057625456e-06
aF1.4919890707994813e-05
aF0.019107851150001815
aF2.8541486383111794
aF86.89378553754221
aF879.0919749487289
aF3669.288028926959
aF6613.5436861368535
aF4148.823301505168
aF43.84741802172348
aF3422.417887575817
aF8023.213500911673
aF5821.790542250375
aF1801.134765974459
aF235.0095423393521
aF10.843338254231263
aF0.11696661045968554
aF6.795610093682258e-05
aF9.003248280552928e-07
aF2.043464838375914e-06
aF2.684388991281497e-08
aF0.0006081975952449509
aF0.37143737276801514
aF27.9337359614571
aF536.4065906194919
aF3796.120570616389
aF11496.192687741754
aF14562.376749545483
aF4870.748536117114
aF767.9193380751116
aF12128.660916579258
aF16757.037485060635
aF8686.074672874673
aF1954.4340720144223
aF177.38946738464915
aF5.074410963483739
aF0.0260437557125316
aF8.177698564658389e-08
aF3.434382595584256e-07
aF3.272533872251151e-07
aF4.840583119114677e-06
aF0.01564914043214545
aF4.056577523669934
aF172.12372818253885
aF2210.877756903775
aF11274.943428457073
aF24968.21975252712
aF21409.71497681722
aF2382.453066964923
aF6925.698066499829
aF27169.598205099846
aF24971.012459667636
aF9458.624422496328
aF1542.7482321445686
aF94.9152580727931
aF1.5737041430411645
aF0.0031349202726874688
aF8.784673473853065e-07
aF3.374119710215766e-09
aF4.6816902261297386e-08
aF0.00017018981663118813
aF0.25209697563969535
aF30.083700728361862
aF782.5777993195119
aF6991.243937558122
aF0.0
aF0.0
aF0.0
aaF27169.598205099846
acnumpy.core.multiarray
scalar
p2
(cnumpy
dtype
p3
(S'f8'
p4
I0
I1
tp5
Rp6
(I3
S'<'
p7
NNNI-1
I-1
I0
tp8
bS'>\n\xd7\xa3p=:@'
p9
tp10
Rp11
aI32
aI11
acnumpy.core.multiarray
_reconstruct
p12
(cnumpy
ndarray
p13
(I0
tp14
S'b'
p15
tp16
Rp17
(I1
(I100
tp18
g6
I00
S'\x00\x00\x00\x00\x00\x00\x00\x00{\x14\xaeG\xe1z\xd4?{\x14\xaeG\xe1z\xe4?\xb8\x1e\x85\xebQ\xb8\xee?{\x14\xaeG\xe1z\xf4?\x9a\x99\x99\x99\x99\x99\xf9?\xb8\x1e\x85\xebQ\xb8\xfe?\xecQ\xb8\x1e\x85\xeb\x01@{\x14\xaeG\xe1z\x04@\n\xd7\xa3p=\n\x07@\x9a\x99\x99\x99\x99\x99\t@)\\\x8f\xc2\xf5(\x0c@\xb8\x1e\x85\xebQ\xb8\x0e@\xa4p=\n\xd7\xa3\x10@\xecQ\xb8\x1e\x85\xeb\x11@333333\x13@{\x14\xaeG\xe1z\x14@\xc3\xf5(\\\x8f\xc2\x15@\n\xd7\xa3p=\n\x17@R\xb8\x1e\x85\xebQ\x18@\x9a\x99\x99\x99\x99\x99\x19@\xe1z\x14\xaeG\xe1\x1a@)\\\x8f\xc2\xf5(\x1c@q=\n\xd7\xa3p\x1d@\xb8\x1e\x85\xebQ\xb8\x1e@\x00\x00\x00\x00\x00\x00 @\xa4p=\n\xd7\xa3 @H\xe1z\x14\xaeG!@\xecQ\xb8\x1e\x85\xeb!@\x8f\xc2\xf5(\\\x8f"@333333#@\xd7\xa3p=\n\xd7#@{\x14\xaeG\xe1z$@\x1f\x85\xebQ\xb8\x1e%@\xc3\xf5(\\\x8f\xc2%@gfffff&@\n\xd7\xa3p=\n\'@\xaeG\xe1z\x14\xae\'@R\xb8\x1e\x85\xebQ(@\xf6(\\\x8f\xc2\xf5(@\x9a\x99\x99\x99\x99\x99)@>\n\xd7\xa3p=*@\xe1z\x14\xaeG\xe1*@\x85\xebQ\xb8\x1e\x85+@)\\\x8f\xc2\xf5(,@\xcd\xcc\xcc\xcc\xcc\xcc,@q=\n\xd7\xa3p-@\x15\xaeG\xe1z\x14.@\xb8\x1e\x85\xebQ\xb8.@\\\x8f\xc2\xf5(\\/@\x00\x00\x00\x00\x00\x000@R\xb8\x1e\x85\xebQ0@\xa4p=\n\xd7\xa30@\xf6(\\\x8f\xc2\xf50@H\xe1z\x14\xaeG1@\x9a\x99\x99\x99\x99\x991@\xecQ\xb8\x1e\x85\xeb1@>\n\xd7\xa3p=2@\x8f\xc2\xf5(\\\x8f2@\xe1z\x14\xaeG\xe12@3333333@\x85\xebQ\xb8\x1e\x853@\xd7\xa3p=\n\xd73@)\\\x8f\xc2\xf5(4@{\x14\xaeG\xe1z4@\xcd\xcc\xcc\xcc\xcc\xcc4@\x1f\x85\xebQ\xb8\x1e5@q=\n\xd7\xa3p5@\xc3\xf5(\\\x8f\xc25@\x15\xaeG\xe1z\x146@gfffff6@\xb8\x1e\x85\xebQ\xb86@\n\xd7\xa3p=\n7@\\\x8f\xc2\xf5(\\7@\xaeG\xe1z\x14\xae7@\x00\x00\x00\x00\x00\x008@R\xb8\x1e\x85\xebQ8@\xa4p=\n\xd7\xa38@\xf6(\\\x8f\xc2\xf58@H\xe1z\x14\xaeG9@\x9a\x99\x99\x99\x99\x999@\xecQ\xb8\x1e\x85\xeb9@>\n\xd7\xa3p=:@\x90\xc2\xf5(\\\x8f:@\xe1z\x14\xaeG\xe1:@333333;@\x85\xebQ\xb8\x1e\x85;@\xd7\xa3p=\n\xd7;@)\\\x8f\xc2\xf5(<@{\x14\xaeG\xe1z<@\xcd\xcc\xcc\xcc\xcc\xcc<@\x1f\x85\xebQ\xb8\x1e=@q=\n\xd7\xa3p=@\xc3\xf5(\\\x8f\xc2=@\x15\xaeG\xe1z\x14>@gfffff>@\xb8\x1e\x85\xebQ\xb8>@\n\xd7\xa3p=\n?@\\\x8f\xc2\xf5(\\?@\xaeG\xe1z\x14\xae?@'
p19
tp20
ba(lp21
F5.427781694679345
aF0.3085011964329394
aF0.3193646399328456
aF15.924894939569045
aF27.494117048587498
aF7.54792026549155
aF2.4809724224320537
aF23.810778481840785
aF39.52961588348838
aF43.611257268250284
aF44.009569062524776
aF44.00652911613068
aF43.99758541902068
aF44.01274166136872
aF44.23560134396517
aF48.345586584583835
aF80.41746160783352
aF248.31291158559154
aF825.9264443805642
aF1716.8823123215916
aF1595.905462719254
aF261.81951872583244
aF369.80622531987643
aF1886.151070019847
aF1856.1958062310323
aF648.8399857630717
aF50.323787854839956
aF8.895675235175766
aF37.3999085930375
aF43.6532908961635
aF44.020968136199265
aF43.99673409402988
aF43.98555559367019
aF44.054686512329255
aF45.840245474797875
aF68.93156065340632
aF249.7292908520135
aF1269.5934848796396
aF4272.385036807117
aF7092.325737659064
aF4271.924038941835
aF43.94935586123488
aF3345.387740305069
aF7582.468813673636
aF5159.333419954636
aF1341.2901006038292
aF79.30190389717883
aF10.94911906537518
aF39.554826930258656
aF43.89442846407208
aF44.015167573914745
aF43.98385537747409
aF44.00491923763925
aF44.32910241746354
aF52.403976490905855
aF140.9596014925212
aF871.4456410260121
aF4522.811092530606
aF12405.27953680363
aF15081.922665951459
aF4932.147935845207
aF764.5111603100337
aF11856.01581364833
aF15925.064754723122
aF7769.2793235926765
aF1451.4465962659149
aF46.209265697647346
aF19.07377601551959
aF41.87922566234134
aF43.99815900074337
aF44.00932922498502
aF43.99369041732138
aF44.0304929119338
aF45.67033070796354
aF74.59684606912134
aF386.4585460011582
aF2829.4724718120447
aF12404.134761712157
aF26069.942748186084
aF21826.580473477592
aF2393.424826544156
aF6870.190313618209
aF26533.573275082617
aF23728.95433403396
aF8413.066796302088
aF1086.3512397098816
aF10.018234738094746
aF28.8776131039999
aF43.25896644850647
aF44.013199943385025
aF43.99963488009953
aF43.997590198269606
aF44.17336360888766
aF50.8899420322293
aF146.23055625880838
aF1185.3637064785967
aF8013.076183715888
aF0.0
aF0.0
aF0.0
aaF26533.573275082617
ag2
(g6
S'>\n\xd7\xa3p=:@'
p22
tp23
Rp24
a.