(lp0
(lp1
F0.0
aF0.0
aF5.468117428860055
aF148.63245544894983
aF25.23811177163499
aF0.08147952717648489
aF5.003328047847437e-06
aF5.391558917076804e-06
aF0.0015315985495399946
aF12.586279849899546
aF834.0533927140169
aF1549.6756514593624
aF750.341863160882
aF2335.246063861104
aF138.80483234068845
aF0.1323968584874444
aF4.739353894450531e-05
aF1.740919917453052e-05
aF0.0612227968677606
aF154.07859328346848
aF4751.496410071414
aF3517.5524851168607
aF4919.494274687437
aF5459.341026093504
aF160.84190027001804
aF0.04988108577685939
aF3.726419141976194e-05
aF6.355105647024332e-07
aF0.9599183558679015
aF859.6913284100788
aF13627.527784030824
aF3176.769175631301
aF14911.218963419322
aF7519.009393511419
aF110.40372705359759
aF0.00952442204547193
aF2.3474509855241964e-06
aF4.5166864007084764e-05
aF9.076965991815117
aF3280.201720542758
aF27481.958044175386
aF697.1542048943611
aF30151.735045399935
aF7653.796021338549
aF54.00005132970137
aF0.0006248150272625715
aF6.42559557090361e-05
aF0.001537150181636747
aF60.410622387827885
aF9707.197796790131
aF42852.36657210433
aF908.4278310928734
aF46589.927491941555
aF6230.467617438088
aF19.796400612380992
aF1.9229719717974415e-05
aF3.798337112656656e-05
aF0.022014908329495632
aF305.9126060438047
aF23573.050678489446
aF52951.492649136155
aF11662.321301070728
aF58671.83856699141
aF4194.170015257025
aF5.503582188551759
aF7.437351926066031e-05
aF0.00011513703209831795
aF0.3032989727977719
aF1239.3487773414247
aF48393.387530655345
aF50824.0592282939
aF39122.209956423154
aF62354.168821752566
aF2366.715951886692
aF1.1204857141648725
aF5.1473275115127375e-05
aF1.8449526994698659e-06
aF3.0281396324315923
aF4162.076366165543
aF85317.6118395484
aF34636.10860093486
aF82806.67595102865
aF57036.98992859907
aF1122.014562629008
aF0.16098447532470664
aF3.4362095870233544e-06
aF1.608165256700359e-05
aF22.434280410408267
aF11856.47788737719
aF130034.61018467646
aF12060.73646024316
aF133845.49322979758
aF45382.174067246306
aF444.03897889753466
aF0.014365388420283797
aF1.53913147297722e-06
aF0.0007674250643854588
aF0.0
aF0.0
aF0.0
aaF133845.49322979758
acnumpy.core.multiarray
scalar
p2
(cnumpy
dtype
p3
(S'f8'
p4
I0
I1
tp5
Rp6
(I3
S'<'
p7
NNNI-1
I-1
I0
tp8
bS'\x1f\x85\xebQ\xb8\x1eM@'
p9
tp10
Rp11
aI64
aI11
acnumpy.core.multiarray
_reconstruct
p12
(cnumpy
ndarray
p13
(I0
tp14
S'b'
p15
tp16
Rp17
(I1
(I100
tp18
g6
I00
S"\x00\x00\x00\x00\x00\x00\x00\x00{\x14\xaeG\xe1z\xe4?{\x14\xaeG\xe1z\xf4?\xb8\x1e\x85\xebQ\xb8\xfe?{\x14\xaeG\xe1z\x04@\x9a\x99\x99\x99\x99\x99\t@\xb8\x1e\x85\xebQ\xb8\x0e@\xecQ\xb8\x1e\x85\xeb\x11@{\x14\xaeG\xe1z\x14@\n\xd7\xa3p=\n\x17@\x9a\x99\x99\x99\x99\x99\x19@)\\\x8f\xc2\xf5(\x1c@\xb8\x1e\x85\xebQ\xb8\x1e@\xa4p=\n\xd7\xa3 @\xecQ\xb8\x1e\x85\xeb!@333333#@{\x14\xaeG\xe1z$@\xc3\xf5(\\\x8f\xc2%@\n\xd7\xa3p=\n'@R\xb8\x1e\x85\xebQ(@\x9a\x99\x99\x99\x99\x99)@\xe1z\x14\xaeG\xe1*@)\\\x8f\xc2\xf5(,@q=\n\xd7\xa3p-@\xb8\x1e\x85\xebQ\xb8.@\x00\x00\x00\x00\x00\x000@\xa4p=\n\xd7\xa30@H\xe1z\x14\xaeG1@\xecQ\xb8\x1e\x85\xeb1@\x8f\xc2\xf5(\\\x8f2@3333333@\xd7\xa3p=\n\xd73@{\x14\xaeG\xe1z4@\x1f\x85\xebQ\xb8\x1e5@\xc3\xf5(\\\x8f\xc25@gfffff6@\n\xd7\xa3p=\n7@\xaeG\xe1z\x14\xae7@R\xb8\x1e\x85\xebQ8@\xf6(\\\x8f\xc2\xf58@\x9a\x99\x99\x99\x99\x999@>\n\xd7\xa3p=:@\xe1z\x14\xaeG\xe1:@\x85\xebQ\xb8\x1e\x85;@)\\\x8f\xc2\xf5(<@\xcd\xcc\xcc\xcc\xcc\xcc<@q=\n\xd7\xa3p=@\x15\xaeG\xe1z\x14>@\xb8\x1e\x85\xebQ\xb8>@\\\x8f\xc2\xf5(\\?@\x00\x00\x00\x00\x00\x00@@R\xb8\x1e\x85\xebQ@@\xa4p=\n\xd7\xa3@@\xf6(\\\x8f\xc2\xf5@@H\xe1z\x14\xaeGA@\x9a\x99\x99\x99\x99\x99A@\xecQ\xb8\x1e\x85\xebA@>\n\xd7\xa3p=B@\x8f\xc2\xf5(\\\x8fB@\xe1z\x14\xaeG\xe1B@333333C@\x85\xebQ\xb8\x1e\x85C@\xd7\xa3p=\n\xd7C@)\\\x8f\xc2\xf5(D@{\x14\xaeG\xe1zD@\xcd\xcc\xcc\xcc\xcc\xccD@\x1f\x85\xebQ\xb8\x1eE@q=\n\xd7\xa3pE@\xc3\xf5(\\\x8f\xc2E@\x15\xaeG\xe1z\x14F@gfffffF@\xb8\x1e\x85\xebQ\xb8F@\n\xd7\xa3p=\nG@\\\x8f\xc2\xf5(\\G@\xaeG\xe1z\x14\xaeG@\x00\x00\x00\x00\x00\x00H@R\xb8\x1e\x85\xebQH@\xa4p=\n\xd7\xa3H@\xf6(\\\x8f\xc2\xf5H@H\xe1z\x14\xaeGI@\x9a\x99\x99\x99\x99\x99I@\xecQ\xb8\x1e\x85\xebI@>\n\xd7\xa3p=J@\x90\xc2\xf5(\\\x8fJ@\xe1z\x14\xaeG\xe1J@333333K@\x85\xebQ\xb8\x1e\x85K@\xd7\xa3p=\n\xd7K@)\\\x8f\xc2\xf5(L@{\x14\xaeG\xe1zL@\xcd\xcc\xcc\xcc\xcc\xccL@\x1f\x85\xebQ\xb8\x1eM@q=\n\xd7\xa3pM@\xc3\xf5(\\\x8f\xc2M@\x15\xaeG\xe1z\x14N@gfffffN@\xb8\x1e\x85\xebQ\xb8N@\n\xd7\xa3p=\nO@\\\x8f\xc2\xf5(\\O@\xaeG\xe1z\x14\xaeO@"
p19
tp20
ba(lp21
F30.815807827557606
aF3.8900862408706742
aF4.997720294626239
aF76.98095996530971
aF1.3003335974837127
aF40.16512439632855
aF44.041042753245684
aF43.98021521317271
aF44.523478141523455
aF101.45711864169321
aF1153.1696251813153
aF1651.5124232721623
aF727.4891699623382
aF1953.089831620575
aF29.459804198457388
aF39.26568725598664
aF44.101753344034485
aF43.955051115065174
aF47.32389706543049
aF355.0801643961614
aF5391.996550173638
aF3599.1800991113005
aF4790.809017243653
aF4777.922951999476
aF38.50279595457724
aF41.079640054854636
aF44.089267932482464
aF43.99751923738051
aF57.871332035156826
aF1267.4056421616544
aF14535.705925573937
aF3205.830266331124
aF14530.920111398913
aF6628.21167778757
aF15.642172506135289
aF42.72109760087089
aF44.02827343020791
aF44.09698841821841
aF92.74075507794261
aF4010.49070481566
aF28516.060611379264
aF698.7779872039212
aF29359.108660704704
aF6685.128578056726
aF0.5681022568046333
aF43.67616922888366
aF43.90023083442281
aF44.528746880880995
aF206.45338210615816
aF10870.948465116311
aF43822.35090316252
aF906.8703949646892
aF45279.13169814477
aF5312.901773705832
aF4.697029960967239
aF44.06486301036235
aF43.92235247469127
aF45.99050937649014
aF578.1641149477599
aF25234.309956120913
aF53689.088672996724
aF11609.878332411028
aF56846.896520882685
aF3421.1499288919154
aF18.32716282737225
aF44.11789320025925
aF43.86281160523108
aF51.59568520754069
aF1737.683387624547
aF50523.307111381175
aF51252.675618691486
aF38860.73015264015
aF60140.70619618779
aF1782.8716048637332
aF31.055035107780224
aF44.09769101742906
aF43.98430298706705
aF70.05238521750942
aF5023.1050894649625
aF87764.3862215085
aF34799.515661582656
aF82091.76817079524
aF54647.69870724277
aF727.6793264203624
aF38.831982018846865
aF44.02606394124935
aF44.05517124155447
aF129.03423620189946
aF13238.867754745623
aF132533.64242031335
aF12085.40620560035
aF132429.2255256424
aF43055.461348452205
aF210.10477347040663
aF42.42275641882959
aF43.98374589758982
aF44.36856876345401
aF0.0
aF0.0
aF0.0
aaF132533.64242031335
ag2
(g6
S'{\x14\xaeG\xe1zL@'
p22
tp23
Rp24
a.