(lp0
(dp1
S'Healthy'
p2
(lp3
F90.84380610412927
aF88.7766554433221
aF88.50682995760715
aF90.22770398481973
aF82.6580226904376
aF90.98837209302324
aF83.74792703150912
aF90.78138718173837
aF85.85365853658537
asS'Obese'
p4
(lp5
F1.0771992818671454
aF0.11223344556677892
aF0.4239284032030146
aF0.47438330170777987
aF1.9448946515397085
aF0.29069767441860467
aF1.3266998341625207
aF0.17559262510974538
aF0.3252032520325203
asS'Over'
p6
(lp7
F5.026929982046679
aF7.968574635241302
aF8.337258596325954
aF3.225806451612903
aF11.021069692058347
aF4.723837209302325
aF12.935323383084576
aF6.057945566286216
aF11.707317073170733
asS'Under'
p8
(lp9
F3.052064631956912
aF3.1425364758698096
aF2.7319830428638716
aF6.072106261859583
aF4.376012965964344
aF3.997093023255814
aF1.9900497512437811
aF2.9850746268656714
aF2.113821138211382
asa(dp10
g2
(lp11
F67.9245283018868
aF84.0909090909091
aF80.3030303030303
aF67.42424242424242
aF83.92857142857143
aF64.70588235294117
aF85.71428571428571
aF78.28947368421053
aF88.43537414965986
asg4
(lp12
F0.0
aF1.1363636363636365
aF0.0
aF0.7575757575757576
aF0.0
aF0.7352941176470588
aF2.0408163265306123
aF0.6578947368421052
aF0.0
asg6
(lp13
F0.0
aF1.1363636363636365
aF1.1363636363636365
aF0.7575757575757576
aF1.7857142857142856
aF0.0
aF2.0408163265306123
aF1.3157894736842104
aF1.3605442176870748
asg8
(lp14
F32.075471698113205
aF13.636363636363635
aF18.560606060606062
aF31.060606060606062
aF14.285714285714285
aF34.55882352941176
aF10.204081632653061
aF19.736842105263158
aF10.204081632653061
asa.