(lp0
(lp1
F0.0
aF0.0
aF1.0564376991595321e-13
aF2.328722534345401e-13
aF4.055031541030974e-13
aF6.204674817237814e-13
aF8.747622481057512e-13
aF1.165450468461092e-12
aF1.4896611501421963e-12
aF1.8445892949148792e-12
aF2.227495915372515e-12
aF2.6357080310150344e-12
aF3.0666186407939804e-12
aF3.5176867362122675e-12
aF3.986437333735081e-12
aF4.470461460308049e-12
aF4.967416104013376e-12
aF5.475024236283193e-12
aF5.991074895128461e-12
aF6.513423111187671e-12
aF7.039989859134953e-12
aF7.568762104232236e-12
aF8.097792879061348e-12
aF8.625201234345532e-12
aF9.14917212947262e-12
aF9.667956514514808e-12
aF1.017987141636386e-11
aF1.0683299952438975e-11
aF1.117669092805132e-11
aF1.1658559531113738e-11
aF1.2127486696765545e-11
aF1.258211928729725e-11
aF1.3021170537827678e-11
aF1.3443419198656562e-11
aF1.3847710505685667e-11
aF1.4232955257695603e-11
aF1.4598130506944563e-11
aF1.494227942528405e-11
aF1.5264510760582243e-11
aF1.5563999745483e-11
aF1.5839987290567155e-11
aF1.6091780177990232e-11
aF1.631875157512888e-11
aF1.6520340708213213e-11
aF1.669605214048408e-11
aF1.6845457282710723e-11
aF1.6968192739989576e-11
aF1.7063961959850068e-11
aF1.7132533436359275e-11
aF1.7173742688009474e-11
aF1.7187490444928437e-11
aF1.7173743407612394e-11
aF1.7132534896841026e-11
aF1.706396419002348e-11
aF1.6968195978637185e-11
aF1.684546093149099e-11
aF1.6696056404268116e-11
aF1.652034571213062e-11
aF1.6318757506012244e-11
aF1.609178642392401e-11
aF1.5839993908409512e-11
aF1.556400715541751e-11
aF1.526451898277187e-11
aF1.4942287796068192e-11
aF1.459813939126722e-11
aF1.4232964495606367e-11
aF1.3847720066084934e-11
aF1.3443429145123772e-11
aF1.3021180688189574e-11
aF1.2582129739571146e-11
aF1.2127497253329393e-11
aF1.1658570275485288e-11
aF1.117670175883066e-11
aF1.068331075096663e-11
aF1.0179882203559976e-11
aF9.667967165627862e-12
aF9.149182587857417e-12
aF8.625211520512369e-12
aF8.097802913439247e-12
aF7.568771817983675e-12
aF7.039999183271265e-12
aF6.5134320615855894e-12
aF5.9910834014095815e-12
aF5.475032255872251e-12
aF4.9674235728046666e-12
aF4.470468406206178e-12
aF3.9864437056117446e-12
aF3.517692518523473e-12
aF3.066623813688978e-12
aF2.6357125992789543e-12
aF2.2274998881997175e-12
aF1.8445926637757813e-12
aF1.4896639329816418e-12
aF1.1654527042632638e-12
aF8.747639484919839e-13
aF6.204687215762237e-13
aF0.0
aF0.0
aF0.0
aF0.0
aaF1.7187490444928437e-11
acnumpy.core.multiarray
scalar
p2
(cnumpy
dtype
p3
(S'f8'
p4
I0
I1
tp5
Rp6
(I3
S'<'
p7
NNNI-1
I-1
I0
tp8
bS'\xfc\xa9\xf1\xd2Mb@?'
p9
tp10
Rp11
aF0.001
aI11
acnumpy.core.multiarray
_reconstruct
p12
(cnumpy
ndarray
p13
(I0
tp14
S'b'
p15
tp16
Rp17
(I1
(I100
tp18
g6
I00
S'\x00\x00\x00\x00\x00\x00\x00\x00\xf1h\xe3\x88\xb5\xf8\xe4>\xf1h\xe3\x88\xb5\xf8\xf4>j\x1dUM\x10u\xff>\xf1h\xe3\x88\xb5\xf8\x04?-C\x1c\xeb\xe26\n?j\x1dUM\x10u\x0f?\xd3\xfb\xc6\xd7\x9eY\x12?\xf1h\xe3\x88\xb5\xf8\x14?\x0f\xd6\xff9\xcc\x97\x17?-C\x1c\xeb\xe26\x1a?K\xb08\x9c\xf9\xd5\x1c?j\x1dUM\x10u\x1f?D\xc58\x7f\x13\n!?\xd3\xfb\xc6\xd7\x9eY"?b2U0*\xa9#?\xf1h\xe3\x88\xb5\xf8$?\x80\x9fq\xe1@H&?\x0f\xd6\xff9\xcc\x97\'?\x9e\x0c\x8e\x92W\xe7(?-C\x1c\xeb\xe26*?\xbcy\xaaCn\x86+?K\xb08\x9c\xf9\xd5,?\xda\xe6\xc6\xf4\x84%.?j\x1dUM\x10u/?\xfc\xa9\xf1\xd2Mb0?D\xc58\x7f\x13\n1?\x8b\xe0\x7f+\xd9\xb11?\xd3\xfb\xc6\xd7\x9eY2?\x1a\x17\x0e\x84d\x013?b2U0*\xa93?\xa9M\x9c\xdc\xefP4?\xf1h\xe3\x88\xb5\xf84?9\x84*5{\xa05?\x80\x9fq\xe1@H6?\xc8\xba\xb8\x8d\x06\xf06?\x0f\xd6\xff9\xcc\x977?W\xf1F\xe6\x91?8?\x9e\x0c\x8e\x92W\xe78?\xe6\'\xd5>\x1d\x8f9?-C\x1c\xeb\xe26:?u^c\x97\xa8\xde:?\xbcy\xaaCn\x86;?\x04\x95\xf1\xef3.<?K\xb08\x9c\xf9\xd5<?\x93\xcb\x7fH\xbf}=?\xda\xe6\xc6\xf4\x84%>?"\x02\x0e\xa1J\xcd>?j\x1dUM\x10u??Y\x1c\xce\xfcj\x0e@?\xfc\xa9\xf1\xd2Mb@?\xa07\x15\xa90\xb6@?D\xc58\x7f\x13\nA?\xe8R\\U\xf6]A?\x8b\xe0\x7f+\xd9\xb1A?/n\xa3\x01\xbc\x05B?\xd3\xfb\xc6\xd7\x9eYB?w\x89\xea\xad\x81\xadB?\x1a\x17\x0e\x84d\x01C?\xbe\xa41ZGUC?b2U0*\xa9C?\x06\xc0x\x06\r\xfdC?\xa9M\x9c\xdc\xefPD?M\xdb\xbf\xb2\xd2\xa4D?\xf1h\xe3\x88\xb5\xf8D?\x95\xf6\x06_\x98LE?9\x84*5{\xa0E?\xdc\x11N\x0b^\xf4E?\x80\x9fq\xe1@HF?$-\x95\xb7#\x9cF?\xc8\xba\xb8\x8d\x06\xf0F?kH\xdcc\xe9CG?\x0f\xd6\xff9\xcc\x97G?\xb3c#\x10\xaf\xebG?W\xf1F\xe6\x91?H?\xfa~j\xbct\x93H?\x9e\x0c\x8e\x92W\xe7H?B\x9a\xb1h:;I?\xe6\'\xd5>\x1d\x8fI?\x89\xb5\xf8\x14\x00\xe3I?-C\x1c\xeb\xe26J?\xd1\xd0?\xc1\xc5\x8aJ?u^c\x97\xa8\xdeJ?\x19\xec\x86m\x8b2K?\xbcy\xaaCn\x86K?`\x07\xce\x19Q\xdaK?\x04\x95\xf1\xef3.L?\xa8"\x15\xc6\x16\x82L?K\xb08\x9c\xf9\xd5L?\xef=\\r\xdc)M?\x93\xcb\x7fH\xbf}M?7Y\xa3\x1e\xa2\xd1M?\xda\xe6\xc6\xf4\x84%N?~t\xea\xcagyN?"\x02\x0e\xa1J\xcdN?\xc6\x8f1w-!O?j\x1dUM\x10uO?\r\xabx#\xf3\xc8O?Y\x1c\xce\xfcj\x0eP?*\xe3\xdfg\\8P?'
p19
tp20
ba(lp21
F6.909926493847129e-11
aF6.638517090794974e-11
aF6.904795069621563e-11
aF6.897702508253357e-11
aF6.887853155385756e-11
aF6.875645214468277e-11
aF6.8607011914606e-11
aF6.842619846943233e-11
aF6.82181531398485e-11
aF6.798705919369792e-11
aF6.77290676259137e-11
aF6.744009458775577e-11
aF6.712449140219336e-11
aF6.678663005788564e-11
aF6.642259922833439e-11
aF6.602825614965947e-11
aF6.560815021362587e-11
aF6.516682839071932e-11
aF6.470033032065232e-11
aF6.420446794093847e-11
aF6.368397556423696e-11
aF6.314356062835434e-11
aF6.257922732251163e-11
aF6.198675760219694e-11
aF6.137105634122854e-11
aF6.073697517800699e-11
aF6.008049850905471e-11
aF5.939739484805409e-11
aF5.869731235471781e-11
aF5.797146313203046e-11
aF5.722497827200495e-11
aF5.6462892202425934e-11
aF5.567655134386886e-11
aF5.487565897044246e-11
aF5.405155240706799e-11
aF5.321400571577863e-11
aF5.235903042712041e-11
aF5.148243979843685e-11
aF5.059428671750981e-11
aF4.9685734257464016e-11
aF4.8762200837785984e-11
aF4.782892694759791e-11
aF4.688199990779941e-11
aF4.5917321147729746e-11
aF4.494506332541038e-11
aF4.3956485283910173e-11
aF4.296177751365891e-11
aF4.1952253501708755e-11
aF4.0938109192363905e-11
aF3.99107248630476e-11
aF3.887567547993598e-11
aF3.783826379749603e-11
aF3.6794816958065476e-11
aF3.5741500511368345e-11
aF3.468391132357301e-11
aF3.362733011118849e-11
aF3.256822548017162e-11
aF3.1502913724049785e-11
aF3.043698875744095e-11
aF2.937567743601232e-11
aF2.8315620528348324e-11
aF2.7253313284644706e-11
aF2.6194319369983294e-11
aF2.514377837371414e-11
aF2.4098535903535914e-11
aF2.305529593019394e-11
aF2.202370478536964e-11
aF2.0996354269358627e-11
aF1.99827543753873e-11
aF1.8975707626905535e-11
aF1.7984571795504633e-11
aF1.7002376016105825e-11
aF1.6038310033369025e-11
aF1.5085645320560954e-11
aF1.4153388066466893e-11
aF1.3235067406870787e-11
aF1.2339491023767196e-11
aF1.1460460264784643e-11
aF1.0606570406028149e-11
aF9.771908188509201e-12
aF8.964844405946238e-12
aF8.179762023171613e-12
aF7.424798419035707e-12
aF6.6946395246941536e-12
aF5.997186396951702e-12
aF5.3274259379512716e-12
aF4.692502596379276e-12
aF4.089275057191044e-12
aF3.5203713306000372e-12
aF2.991567453153424e-12
aF2.4953221534754308e-12
aF2.0441783916153118e-12
aF1.6293195253995617e-12
aF1.261549748861784e-12
aF9.348582997768855e-13
aF6.563670587560878e-13
aF0.0
aF0.0
aF0.0
aF0.0
aaF6.909926493847129e-11
ag2
(g6
S'\x00\x00\x00\x00\x00\x00\x00\x00'
p22
tp23
Rp24
a.